target datalayout = "e-m:e-p270:32:32-p271:32:32-p272:64:64-i64:64-i128:128-f80:128-n8:16:32:64-S128"
target triple = "x86_64-pc-linux-gnu"

%struct._GtsObject = type { ptr, ptr, i32 }
%struct._GtsTriangle = type { %struct._GtsObject, ptr, ptr, ptr }
%struct.GFace = type { %struct._GtsFace, i32 }
%struct._GtsFace = type { %struct._GtsTriangle, ptr }
%struct.ninfo = type { i32, ptr }

; Function Attrs: nounwind uwtable
define internal i32 @addNeighbor(ptr noundef %0, ptr noundef %1) #0 {
  %3 = alloca ptr, align 8
  %4 = alloca ptr, align 8
  %5 = alloca ptr, align 8
  %6 = alloca ptr, align 8
  store ptr %0, ptr %3, align 8, !tbaa !25
  store ptr %1, ptr %4, align 8, !tbaa !25
  call void @llvm.lifetime.start.p0(i64 8, ptr %5) #12
  %7 = load ptr, ptr %3, align 8, !tbaa !25
  store ptr %7, ptr %5, align 8, !tbaa !25
  call void @llvm.lifetime.start.p0(i64 8, ptr %6) #12
  %8 = load ptr, ptr %4, align 8, !tbaa !25
  store ptr %8, ptr %6, align 8, !tbaa !25
  %9 = load ptr, ptr %5, align 8, !tbaa !25
  %10 = getelementptr inbounds nuw %struct.GFace, ptr %9, i32 0, i32 1
  %11 = load i32, ptr %10, align 8, !tbaa !74
  %12 = load ptr, ptr %6, align 8, !tbaa !25
  %13 = getelementptr inbounds nuw %struct.ninfo, ptr %12, i32 0, i32 1
  %14 = load ptr, ptr %13, align 8, !tbaa !19
  %15 = load ptr, ptr %6, align 8, !tbaa !25
  %16 = getelementptr inbounds nuw %struct.ninfo, ptr %15, i32 0, i32 0
  %17 = load i32, ptr %16, align 8, !tbaa !17
  %18 = sext i32 %17 to i64
  %19 = getelementptr inbounds i32, ptr %14, i64 %18
  store i32 %11, ptr %19, align 4, !tbaa !8
  %20 = load ptr, ptr %6, align 8, !tbaa !25
  %21 = getelementptr inbounds nuw %struct.ninfo, ptr %20, i32 0, i32 0
  %22 = load i32, ptr %21, align 8, !tbaa !17
  %23 = add nsw i32 %22, 1
  store i32 %23, ptr %21, align 8, !tbaa !17
  call void @llvm.lifetime.end.p0(i64 8, ptr %6) #12
  call void @llvm.lifetime.end.p0(i64 8, ptr %5) #12
  ret i32 0
}