; Function Attrs: mustprogress nofree norecurse nosync nounwind willreturn memory(write, argmem: readwrite, inaccessiblemem: none) uwtable
define internal noundef i32 @addNeighbor(ptr noundef readonly captures(none) %0, ptr noundef captures(none) %1) #17 {
  %3 = getelementptr inbounds nuw i8, ptr %0, i64 56
  %4 = load i32, ptr %3, align 8, !tbaa !63
  %5 = getelementptr inbounds nuw i8, ptr %1, i64 8
  %6 = load ptr, ptr %5, align 8, !tbaa !16
  %7 = load i32, ptr %1, align 8, !tbaa !13
  %8 = sext i32 %7 to i64
  %9 = getelementptr inbounds i32, ptr %6, i64 %8
  store i32 %4, ptr %9, align 4, !tbaa !10
  %10 = load i32, ptr %1, align 8, !tbaa !13
  %11 = add nsw i32 %10, 1
  store i32 %11, ptr %1, align 8, !tbaa !13
  ret i32 0
}